target datalayout = "e-m:e-p270:32:32-p271:32:32-p272:64:64-i64:64-i128:128-f80:128-n8:16:32:64-S128"
target triple = "x86_64-pc-linux-gnu"

%struct.FunctionCallInfoBaseData = type { ptr, ptr, ptr, i32, i8, i16, [0 x %struct.NullableDatum] }
%struct.NullableDatum = type { i64, i8 }

@.str.1 = private unnamed_addr constant [6 x i8] c"acl.c\00", align 1
@.str.5 = private unnamed_addr constant [42 x i8] c"unrecognized object type abbreviation: %c\00", align 1
@__func__.acldefault_sql = private unnamed_addr constant [15 x i8] c"acldefault_sql\00", align 1

; Function Attrs: inlinehint nounwind uwtable
define internal i64 @PointerGetDatum(ptr noundef %0) #5 {
  %2 = alloca ptr, align 8
  store ptr %0, ptr %2, align 8
  %3 = load ptr, ptr %2, align 8
  %4 = ptrtoint ptr %3 to i64
  ret i64 %4
}

; Function Attrs: inlinehint nounwind uwtable
define internal i32 @DatumGetObjectId(i64 noundef %0) #5 {
  %2 = alloca i64, align 8
  store i64 %0, ptr %2, align 8
  %3 = load i64, ptr %2, align 8
  %4 = trunc i64 %3 to i32
  ret i32 %4
}

; Function Attrs: inlinehint nounwind uwtable
define internal signext i8 @DatumGetChar(i64 noundef %0) #5 {
  %2 = alloca i64, align 8
  store i64 %0, ptr %2, align 8
  %3 = load i64, ptr %2, align 8
  %4 = trunc i64 %3 to i8
  ret i8 %4
}

; Function Attrs: nounwind uwtable
define dso_local i64 @acldefault_sql(ptr noundef %0) #0 {
  %2 = alloca ptr, align 8
  %3 = alloca i8, align 1
  %4 = alloca i32, align 4
  %5 = alloca i32, align 4
  store ptr %0, ptr %2, align 8
  call void @llvm.lifetime.start.p0(i64 1, ptr %3) #9
  %6 = load ptr, ptr %2, align 8
  %7 = getelementptr inbounds nuw %struct.FunctionCallInfoBaseData, ptr %6, i32 0, i32 6
  %8 = getelementptr inbounds [0 x %struct.NullableDatum], ptr %7, i64 0, i64 0
  %9 = getelementptr inbounds nuw %struct.NullableDatum, ptr %8, i32 0, i32 0
  %10 = load i64, ptr %9, align 8
  %11 = call signext i8 @DatumGetChar(i64 noundef %10)
  store i8 %11, ptr %3, align 1
  call void @llvm.lifetime.start.p0(i64 4, ptr %4) #9
  %12 = load ptr, ptr %2, align 8
  %13 = getelementptr inbounds nuw %struct.FunctionCallInfoBaseData, ptr %12, i32 0, i32 6
  %14 = getelementptr inbounds [0 x %struct.NullableDatum], ptr %13, i64 0, i64 1
  %15 = getelementptr inbounds nuw %struct.NullableDatum, ptr %14, i32 0, i32 0
  %16 = load i64, ptr %15, align 8
  %17 = call i32 @DatumGetObjectId(i64 noundef %16)
  store i32 %17, ptr %4, align 4
  call void @llvm.lifetime.start.p0(i64 4, ptr %5) #9
  store i32 0, ptr %5, align 4
  %18 = load i8, ptr %3, align 1
  %19 = sext i8 %18 to i32
  switch i32 %19, label %33 [
    i32 99, label %20
    i32 114, label %21
    i32 115, label %22
    i32 100, label %23
    i32 102, label %24
    i32 108, label %25
    i32 76, label %26
    i32 110, label %27
    i32 112, label %28
    i32 116, label %29
    i32 70, label %30
    i32 83, label %31
    i32 84, label %32
  ]

20:                                               ; preds = %1
  store i32 6, ptr %5, align 4
  br label %46

21:                                               ; preds = %1
  store i32 41, ptr %5, align 4
  br label %46

22:                                               ; preds = %1
  store i32 37, ptr %5, align 4
  br label %46

23:                                               ; preds = %1
  store i32 9, ptr %5, align 4
  br label %46

24:                                               ; preds = %1
  store i32 19, ptr %5, align 4
  br label %46

25:                                               ; preds = %1
  store i32 21, ptr %5, align 4
  br label %46

26:                                               ; preds = %1
  store i32 22, ptr %5, align 4
  br label %46

27:                                               ; preds = %1
  store i32 36, ptr %5, align 4
  br label %46

28:                                               ; preds = %1
  store i32 27, ptr %5, align 4
  br label %46

29:                                               ; preds = %1
  store i32 42, ptr %5, align 4
  br label %46

30:                                               ; preds = %1
  store i32 16, ptr %5, align 4
  br label %46

31:                                               ; preds = %1
  store i32 17, ptr %5, align 4
  br label %46

32:                                               ; preds = %1
  store i32 49, ptr %5, align 4
  br label %46

33:                                               ; preds = %1
  br label %34

34:                                               ; preds = %33
  br i1 true, label %35, label %37

35:                                               ; preds = %34
  %36 = call zeroext i1 @errstart_cold(i32 noundef 21, ptr noundef null) #10
  br i1 %36, label %39, label %43

37:                                               ; preds = %34
  %38 = call zeroext i1 @errstart(i32 noundef 21, ptr noundef null)
  br i1 %38, label %39, label %43

39:                                               ; preds = %37, %35
  %40 = load i8, ptr %3, align 1
  %41 = sext i8 %40 to i32
  %42 = call i32 (ptr, ...) @errmsg_internal(ptr noundef @.str.5, i32 noundef %41)
  call void @errfinish(ptr noundef @.str.1, i32 noundef 952, ptr noundef @__func__.acldefault_sql)
  br label %43

43:                                               ; preds = %39, %37, %35
  unreachable

44:                                               ; No predecessors!
  br label %45

45:                                               ; preds = %44
  br label %46

46:                                               ; preds = %45, %32, %31, %30, %29, %28, %27, %26, %25, %24, %23, %22, %21, %20
  %47 = load i32, ptr %5, align 4
  %48 = load i32, ptr %4, align 4
  %49 = call ptr @acldefault(i32 noundef %47, i32 noundef %48)
  %50 = call i64 @PointerGetDatum(ptr noundef %49)
  call void @llvm.lifetime.end.p0(i64 4, ptr %5) #9
  call void @llvm.lifetime.end.p0(i64 4, ptr %4) #9
  call void @llvm.lifetime.end.p0(i64 1, ptr %3) #9
  ret i64 %50
}