; Function Attrs: nounwind uwtable
define dso_local noundef i64 @acldefault_sql(ptr noundef readonly captures(none) %0) local_unnamed_addr #0 {
  %2 = getelementptr inbounds nuw i8, ptr %0, i64 32
  %3 = load i64, ptr %2, align 8
  %4 = trunc i64 %3 to i8
  %5 = getelementptr inbounds nuw i8, ptr %0, i64 48
  %6 = load i64, ptr %5, align 8
  switch i8 %4, label %19 [
    i8 99, label %23
    i8 114, label %7
    i8 115, label %8
    i8 100, label %9
    i8 102, label %10
    i8 108, label %11
    i8 76, label %12
    i8 110, label %13
    i8 112, label %14
    i8 116, label %15
    i8 70, label %16
    i8 83, label %17
    i8 84, label %18
  ]

7:                                                ; preds = %1
  br label %23

8:                                                ; preds = %1
  br label %23

9:                                                ; preds = %1
  br label %23

10:                                               ; preds = %1
  br label %23

11:                                               ; preds = %1
  br label %23

12:                                               ; preds = %1
  br label %23

13:                                               ; preds = %1
  br label %23

14:                                               ; preds = %1
  br label %23

15:                                               ; preds = %1
  br label %23

16:                                               ; preds = %1
  br label %23

17:                                               ; preds = %1
  br label %23

18:                                               ; preds = %1
  br label %23

19:                                               ; preds = %1
  %20 = sext i8 %4 to i32
  %21 = tail call zeroext i1 @errstart_cold(i32 noundef 21, ptr noundef null) #15
  tail call void @llvm.assume(i1 %21)
  %22 = tail call i32 (ptr, ...) @errmsg_internal(ptr noundef nonnull @.str.5, i32 noundef %20) #14
  tail call void @errfinish(ptr noundef nonnull @.str.1, i32 noundef 952, ptr noundef nonnull @__func__.acldefault_sql) #14
  unreachable

23:                                               ; preds = %1, %18, %17, %16, %15, %14, %13, %12, %11, %10, %9, %8, %7
  %.0 = phi i32 [ 49, %18 ], [ 17, %17 ], [ 16, %16 ], [ 42, %15 ], [ 27, %14 ], [ 36, %13 ], [ 22, %12 ], [ 21, %11 ], [ 19, %10 ], [ 9, %9 ], [ 37, %8 ], [ 41, %7 ], [ 6, %1 ]
  %24 = trunc i64 %6 to i32
  %25 = tail call ptr @acldefault(i32 noundef %.0, i32 noundef %24)
  %26 = ptrtoint ptr %25 to i64
  ret i64 %26
}